target datalayout = "e-m:e-p270:32:32-p271:32:32-p272:64:64-i64:64-i128:128-f80:128-n8:16:32:64-S128"
target triple = "x86_64-pc-linux-gnu"

%"class.casadi::ZeroByZero" = type { %"class.casadi::ConstantMX" }
%"class.casadi::ConstantMX" = type { %"class.casadi::MXNode" }
%"class.casadi::MXNode" = type { %"class.casadi::SharedObjectInternal", i64, %"class.std::vector", %"class.casadi::Sparsity" }
%"class.casadi::SharedObjectInternal" = type { ptr, i64, ptr }
%"class.std::vector" = type { %"struct.std::_Vector_base" }
%"struct.std::_Vector_base" = type { %"struct.std::_Vector_base<casadi::MX, std::allocator<casadi::MX>>::_Vector_impl" }
%"struct.std::_Vector_base<casadi::MX, std::allocator<casadi::MX>>::_Vector_impl" = type { %"struct.std::_Vector_base<casadi::MX, std::allocator<casadi::MX>>::_Vector_impl_data" }
%"struct.std::_Vector_base<casadi::MX, std::allocator<casadi::MX>>::_Vector_impl_data" = type { ptr, ptr, ptr }
%"class.casadi::Sparsity" = type { %"class.casadi::SharedObject" }
%"class.casadi::SharedObject" = type { ptr }
%"struct.casadi::RuntimeConst" = type { i64 }
%"class.casadi::Constant.96" = type { %"class.casadi::ConstantMX", %"struct.casadi::RuntimeConst" }

@__dso_handle = external hidden global i8
@_ZZN6casadi10ZeroByZero11getInstanceEvE8instance = linkonce_odr global %"class.casadi::ZeroByZero" zeroinitializer, comdat, align 8
@_ZGVZN6casadi10ZeroByZero11getInstanceEvE8instance = linkonce_odr global i64 0, comdat, align 8

; Function Attrs: mustprogress uwtable
define void @_ZN6casadi10ConstantMXC2ERKNS_8SparsityE(ptr noundef nonnull align 8 dereferenceable(64) %0, ptr noundef nonnull align 8 dereferenceable(8) %1) unnamed_addr #4 align 2 personality ptr @__gxx_personality_v0 {
  %3 = alloca ptr, align 8
  %4 = alloca ptr, align 8
  %5 = alloca ptr, align 8
  %6 = alloca i32, align 4
  store ptr %0, ptr %3, align 8
  store ptr %1, ptr %4, align 8
  %7 = load ptr, ptr %3, align 8
  call void @_ZN6casadi6MXNodeC2Ev(ptr noundef nonnull align 8 dereferenceable(64) %7)
  store ptr getelementptr inbounds ({ [108 x ptr] }, ptr @_ZTVN6casadi10ConstantMXE, i32 0, i32 0, i32 2), ptr %7, align 8
  %8 = load ptr, ptr %4, align 8
  invoke void @_ZN6casadi6MXNode12set_sparsityERKNS_8SparsityE(ptr noundef nonnull align 8 dereferenceable(64) %7, ptr noundef nonnull align 8 dereferenceable(8) %8)
          to label %9 unwind label %10

9:                                                ; preds = %2
  ret void

10:                                               ; preds = %2
  %11 = landingpad { ptr, i32 }
          cleanup
  %12 = extractvalue { ptr, i32 } %11, 0
  store ptr %12, ptr %5, align 8
  %13 = extractvalue { ptr, i32 } %11, 1
  store i32 %13, ptr %6, align 4
  call void @_ZN6casadi6MXNodeD2Ev(ptr noundef nonnull align 8 dereferenceable(64) %7) #3
  br label %14

14:                                               ; preds = %10
  %15 = load ptr, ptr %5, align 8
  %16 = load i32, ptr %6, align 4
  %17 = insertvalue { ptr, i32 } poison, ptr %15, 0
  %18 = insertvalue { ptr, i32 } %17, i32 %16, 1
  resume { ptr, i32 } %18
}

; Function Attrs: mustprogress uwtable
define linkonce_odr hidden void @_ZN6casadi8ConstantINS_12RuntimeConstIxEEEC2ERKNS_8SparsityES2_(ptr noundef nonnull align 8 dereferenceable(72) %0, ptr noundef nonnull align 8 dereferenceable(8) %1, i64 %2) unnamed_addr #4 comdat align 2 {
  %4 = alloca %"struct.casadi::RuntimeConst", align 8
  %5 = alloca ptr, align 8
  %6 = alloca ptr, align 8
  %7 = getelementptr inbounds %"struct.casadi::RuntimeConst", ptr %4, i32 0, i32 0
  store i64 %2, ptr %7, align 8
  store ptr %0, ptr %5, align 8
  store ptr %1, ptr %6, align 8
  %8 = load ptr, ptr %5, align 8
  %9 = load ptr, ptr %6, align 8
  call void @_ZN6casadi10ConstantMXC2ERKNS_8SparsityE(ptr noundef nonnull align 8 dereferenceable(64) %8, ptr noundef nonnull align 8 dereferenceable(8) %9)
  store ptr getelementptr inbounds ({ [108 x ptr] }, ptr @_ZTVN6casadi8ConstantINS_12RuntimeConstIxEEEE, i32 0, i32 0, i32 2), ptr %8, align 8
  %10 = getelementptr inbounds %"class.casadi::Constant.96", ptr %8, i32 0, i32 1
  call void @llvm.memcpy.p0.p0.i64(ptr align 8 %10, ptr align 8 %4, i64 8, i1 false)
  ret void
}

; Function Attrs: mustprogress nounwind uwtable
define linkonce_odr hidden void @_ZN6casadi12RuntimeConstIxEC2Ex(ptr noundef nonnull align 8 dereferenceable(8) %0, i64 noundef %1) unnamed_addr #5 comdat align 2 {
  %3 = alloca ptr, align 8
  %4 = alloca i64, align 8
  store ptr %0, ptr %3, align 8
  store i64 %1, ptr %4, align 8
  %5 = load ptr, ptr %3, align 8
  %6 = getelementptr inbounds %"struct.casadi::RuntimeConst", ptr %5, i32 0, i32 0
  %7 = load i64, ptr %4, align 8
  store i64 %7, ptr %6, align 8
  ret void
}

; Function Attrs: mustprogress uwtable
define linkonce_odr hidden void @_ZN6casadi8ConstantINS_16CompiletimeConstILin1EEEEC2ERKNS_8SparsityES2_(ptr noundef nonnull align 8 dereferenceable(65) %0, ptr noundef nonnull align 8 dereferenceable(8) %1) unnamed_addr #4 comdat align 2 {
  %3 = alloca ptr, align 8
  %4 = alloca ptr, align 8
  store ptr %0, ptr %3, align 8
  store ptr %1, ptr %4, align 8
  %5 = load ptr, ptr %3, align 8
  %6 = load ptr, ptr %4, align 8
  call void @_ZN6casadi10ConstantMXC2ERKNS_8SparsityE(ptr noundef nonnull align 8 dereferenceable(64) %5, ptr noundef nonnull align 8 dereferenceable(8) %6)
  store ptr getelementptr inbounds ({ [108 x ptr] }, ptr @_ZTVN6casadi8ConstantINS_16CompiletimeConstILin1EEEEE, i32 0, i32 0, i32 2), ptr %5, align 8
  ret void
}

; Function Attrs: mustprogress uwtable
define linkonce_odr hidden void @_ZN6casadi8ConstantINS_16CompiletimeConstILi1EEEEC2ERKNS_8SparsityES2_(ptr noundef nonnull align 8 dereferenceable(65) %0, ptr noundef nonnull align 8 dereferenceable(8) %1) unnamed_addr #4 comdat align 2 {
  %3 = alloca ptr, align 8
  %4 = alloca ptr, align 8
  store ptr %0, ptr %3, align 8
  store ptr %1, ptr %4, align 8
  %5 = load ptr, ptr %3, align 8
  %6 = load ptr, ptr %4, align 8
  call void @_ZN6casadi10ConstantMXC2ERKNS_8SparsityE(ptr noundef nonnull align 8 dereferenceable(64) %5, ptr noundef nonnull align 8 dereferenceable(8) %6)
  store ptr getelementptr inbounds ({ [108 x ptr] }, ptr @_ZTVN6casadi8ConstantINS_16CompiletimeConstILi1EEEEE, i32 0, i32 0, i32 2), ptr %5, align 8
  ret void
}

; Function Attrs: mustprogress uwtable
define linkonce_odr hidden void @_ZN6casadi8ConstantINS_16CompiletimeConstILi0EEEEC2ERKNS_8SparsityES2_(ptr noundef nonnull align 8 dereferenceable(65) %0, ptr noundef nonnull align 8 dereferenceable(8) %1) unnamed_addr #4 comdat align 2 {
  %3 = alloca ptr, align 8
  %4 = alloca ptr, align 8
  store ptr %0, ptr %3, align 8
  store ptr %1, ptr %4, align 8
  %5 = load ptr, ptr %3, align 8
  %6 = load ptr, ptr %4, align 8
  call void @_ZN6casadi10ConstantMXC2ERKNS_8SparsityE(ptr noundef nonnull align 8 dereferenceable(64) %5, ptr noundef nonnull align 8 dereferenceable(8) %6)
  store ptr getelementptr inbounds ({ [108 x ptr] }, ptr @_ZTVN6casadi8ConstantINS_16CompiletimeConstILi0EEEEE, i32 0, i32 0, i32 2), ptr %5, align 8
  ret void
}

; Function Attrs: mustprogress uwtable
define linkonce_odr hidden noundef ptr @_ZN6casadi10ZeroByZero11getInstanceEv() #4 comdat align 2 personality ptr @__gxx_personality_v0 {
  %1 = alloca ptr, align 8
  %2 = alloca i32, align 4
  %3 = load atomic i8, ptr @_ZGVZN6casadi10ZeroByZero11getInstanceEvE8instance acquire, align 8
  %4 = icmp eq i8 %3, 0
  br i1 %4, label %5, label %11, !prof !6

5:                                                ; preds = %0
  %6 = call i32 @__cxa_guard_acquire(ptr @_ZGVZN6casadi10ZeroByZero11getInstanceEvE8instance) #3
  %7 = icmp ne i32 %6, 0
  br i1 %7, label %8, label %11

8:                                                ; preds = %5
  invoke void @_ZN6casadi10ZeroByZeroC2Ev(ptr noundef nonnull align 8 dereferenceable(64) @_ZZN6casadi10ZeroByZero11getInstanceEvE8instance)
          to label %9 unwind label %12

9:                                                ; preds = %8
  %10 = call i32 @__cxa_atexit(ptr @_ZN6casadi10ZeroByZeroD2Ev, ptr @_ZZN6casadi10ZeroByZero11getInstanceEvE8instance, ptr @__dso_handle) #3
  call void @__cxa_guard_release(ptr @_ZGVZN6casadi10ZeroByZero11getInstanceEvE8instance) #3
  br label %11

11:                                               ; preds = %9, %5, %0
  ret ptr @_ZZN6casadi10ZeroByZero11getInstanceEvE8instance

12:                                               ; preds = %8
  %13 = landingpad { ptr, i32 }
          cleanup
  %14 = extractvalue { ptr, i32 } %13, 0
  store ptr %14, ptr %1, align 8
  %15 = extractvalue { ptr, i32 } %13, 1
  store i32 %15, ptr %2, align 4
  call void @__cxa_guard_abort(ptr @_ZGVZN6casadi10ZeroByZero11getInstanceEvE8instance) #3
  br label %16

16:                                               ; preds = %12
  %17 = load ptr, ptr %1, align 8
  %18 = load i32, ptr %2, align 4
  %19 = insertvalue { ptr, i32 } poison, ptr %17, 0
  %20 = insertvalue { ptr, i32 } %19, i32 %18, 1
  resume { ptr, i32 } %20
}

; Function Attrs: mustprogress uwtable
define noundef ptr @_ZN6casadi10ConstantMX6createERKNS_8SparsityEx(ptr noundef nonnull align 8 dereferenceable(8) %0, i64 noundef %1) #4 align 2 personality ptr @__gxx_personality_v0 {
  %3 = alloca ptr, align 8
  %4 = alloca ptr, align 8
  %5 = alloca i64, align 8
  %6 = alloca ptr, align 8
  %7 = alloca i32, align 4
  %8 = alloca %"struct.casadi::RuntimeConst", align 8
  store ptr %0, ptr %4, align 8
  store i64 %1, ptr %5, align 8
  %9 = load ptr, ptr %4, align 8
  %10 = call noundef zeroext i1 @_ZNK6casadi8Sparsity8is_emptyEb(ptr noundef nonnull align 8 dereferenceable(8) %9, i1 noundef zeroext true)
  br i1 %10, label %11, label %13

11:                                               ; preds = %2
  %12 = call noundef ptr @_ZN6casadi10ZeroByZero11getInstanceEv()
  store ptr %12, ptr %3, align 8
  br label %51

13:                                               ; preds = %2
  %14 = load i64, ptr %5, align 8
  switch i64 %14, label %39 [
    i64 0, label %15
    i64 1, label %23
    i64 -1, label %31
  ]

15:                                               ; preds = %13
  %16 = call noalias noundef nonnull ptr @_Znwm(i64 noundef 72) #17
  %17 = load ptr, ptr %4, align 8
  invoke void @_ZN6casadi8ConstantINS_16CompiletimeConstILi0EEEEC2ERKNS_8SparsityES2_(ptr noundef nonnull align 8 dereferenceable(65) %16, ptr noundef nonnull align 8 dereferenceable(8) %17)
          to label %18 unwind label %19

18:                                               ; preds = %15
  store ptr %16, ptr %3, align 8
  br label %51

19:                                               ; preds = %15
  %20 = landingpad { ptr, i32 }
          cleanup
  %21 = extractvalue { ptr, i32 } %20, 0
  store ptr %21, ptr %6, align 8
  %22 = extractvalue { ptr, i32 } %20, 1
  store i32 %22, ptr %7, align 4
  call void @_ZdlPv(ptr noundef %16) #18
  br label %53

23:                                               ; preds = %13
  %24 = call noalias noundef nonnull ptr @_Znwm(i64 noundef 72) #17
  %25 = load ptr, ptr %4, align 8
  invoke void @_ZN6casadi8ConstantINS_16CompiletimeConstILi1EEEEC2ERKNS_8SparsityES2_(ptr noundef nonnull align 8 dereferenceable(65) %24, ptr noundef nonnull align 8 dereferenceable(8) %25)
          to label %26 unwind label %27

26:                                               ; preds = %23
  store ptr %24, ptr %3, align 8
  br label %51

27:                                               ; preds = %23
  %28 = landingpad { ptr, i32 }
          cleanup
  %29 = extractvalue { ptr, i32 } %28, 0
  store ptr %29, ptr %6, align 8
  %30 = extractvalue { ptr, i32 } %28, 1
  store i32 %30, ptr %7, align 4
  call void @_ZdlPv(ptr noundef %24) #18
  br label %53

31:                                               ; preds = %13
  %32 = call noalias noundef nonnull ptr @_Znwm(i64 noundef 72) #17
  %33 = load ptr, ptr %4, align 8
  invoke void @_ZN6casadi8ConstantINS_16CompiletimeConstILin1EEEEC2ERKNS_8SparsityES2_(ptr noundef nonnull align 8 dereferenceable(65) %32, ptr noundef nonnull align 8 dereferenceable(8) %33)
          to label %34 unwind label %35

34:                                               ; preds = %31
  store ptr %32, ptr %3, align 8
  br label %51

35:                                               ; preds = %31
  %36 = landingpad { ptr, i32 }
          cleanup
  %37 = extractvalue { ptr, i32 } %36, 0
  store ptr %37, ptr %6, align 8
  %38 = extractvalue { ptr, i32 } %36, 1
  store i32 %38, ptr %7, align 4
  call void @_ZdlPv(ptr noundef %32) #18
  br label %53

39:                                               ; preds = %13
  %40 = call noalias noundef nonnull ptr @_Znwm(i64 noundef 72) #17
  %41 = load ptr, ptr %4, align 8
  %42 = load i64, ptr %5, align 8
  invoke void @_ZN6casadi12RuntimeConstIxEC2Ex(ptr noundef nonnull align 8 dereferenceable(8) %8, i64 noundef %42)
          to label %43 unwind label %47

43:                                               ; preds = %39
  %44 = getelementptr inbounds %"struct.casadi::RuntimeConst", ptr %8, i32 0, i32 0
  %45 = load i64, ptr %44, align 8
  invoke void @_ZN6casadi8ConstantINS_12RuntimeConstIxEEEC2ERKNS_8SparsityES2_(ptr noundef nonnull align 8 dereferenceable(72) %40, ptr noundef nonnull align 8 dereferenceable(8) %41, i64 %45)
          to label %46 unwind label %47

46:                                               ; preds = %43
  store ptr %40, ptr %3, align 8
  br label %51

47:                                               ; preds = %43, %39
  %48 = landingpad { ptr, i32 }
          cleanup
  %49 = extractvalue { ptr, i32 } %48, 0
  store ptr %49, ptr %6, align 8
  %50 = extractvalue { ptr, i32 } %48, 1
  store i32 %50, ptr %7, align 4
  call void @_ZdlPv(ptr noundef %40) #18
  br label %53

51:                                               ; preds = %46, %34, %26, %18, %11
  %52 = load ptr, ptr %3, align 8
  ret ptr %52

53:                                               ; preds = %47, %35, %27, %19
  %54 = load ptr, ptr %6, align 8
  %55 = load i32, ptr %7, align 4
  %56 = insertvalue { ptr, i32 } poison, ptr %54, 0
  %57 = insertvalue { ptr, i32 } %56, i32 %55, 1
  resume { ptr, i32 } %57
}