; Function Attrs: mustprogress uwtable
define noundef nonnull ptr @_ZN6casadi10ConstantMX6createERKNS_8SparsityEx(ptr noundef nonnull align 8 dereferenceable(8) %0, i64 noundef %1) local_unnamed_addr #3 align 2 personality ptr @__gxx_personality_v0 {
  %3 = tail call noundef zeroext i1 @_ZNK6casadi8Sparsity8is_emptyEb(ptr noundef nonnull align 8 dereferenceable(8) %0, i1 noundef zeroext true)
  br i1 %3, label %4, label %14

4:                                                ; preds = %2
  %5 = load atomic i8, ptr @_ZGVZN6casadi10ZeroByZero11getInstanceEvE8instance acquire, align 8
  %6 = icmp eq i8 %5, 0
  br i1 %6, label %7, label %_ZN6casadi10ZeroByZero11getInstanceEv.exit, !prof !16

7:                                                ; preds = %4
  %8 = tail call i32 @__cxa_guard_acquire(ptr nonnull @_ZGVZN6casadi10ZeroByZero11getInstanceEvE8instance) #25
  %.not.i = icmp eq i32 %8, 0
  br i1 %.not.i, label %_ZN6casadi10ZeroByZero11getInstanceEv.exit, label %9

9:                                                ; preds = %7
  invoke void @_ZN6casadi10ZeroByZeroC2Ev(ptr noundef nonnull align 8 dereferenceable(64) @_ZZN6casadi10ZeroByZero11getInstanceEvE8instance)
          to label %10 unwind label %12

10:                                               ; preds = %9
  %11 = tail call i32 @__cxa_atexit(ptr nonnull @_ZN6casadi10ZeroByZeroD2Ev, ptr nonnull @_ZZN6casadi10ZeroByZero11getInstanceEvE8instance, ptr nonnull @__dso_handle) #25
  tail call void @__cxa_guard_release(ptr nonnull @_ZGVZN6casadi10ZeroByZero11getInstanceEvE8instance) #25
  br label %_ZN6casadi10ZeroByZero11getInstanceEv.exit

common.resume:                                    ; preds = %.body, %.body13, %.body16, %.body19, %12
  %common.resume.op = phi { ptr, i32 } [ %13, %12 ], [ %eh.lpad-body20, %.body19 ], [ %eh.lpad-body17, %.body16 ], [ %eh.lpad-body14, %.body13 ], [ %eh.lpad-body, %.body ]
  resume { ptr, i32 } %common.resume.op

12:                                               ; preds = %9
  %13 = landingpad { ptr, i32 }
          cleanup
  tail call void @__cxa_guard_abort(ptr nonnull @_ZGVZN6casadi10ZeroByZero11getInstanceEvE8instance) #25
  br label %common.resume

14:                                               ; preds = %2
  %15 = tail call noalias noundef nonnull dereferenceable(72) ptr @_Znwm(i64 noundef 72) #29
  switch i64 %1, label %31 [
    i64 0, label %16
    i64 1, label %21
    i64 -1, label %26
  ]

16:                                               ; preds = %14
  invoke void @_ZN6casadi6MXNodeC2Ev(ptr noundef nonnull align 8 dereferenceable(64) %15)
          to label %.noexc unwind label %19

.noexc:                                           ; preds = %16
  store ptr getelementptr inbounds ({ [108 x ptr] }, ptr @_ZTVN6casadi10ConstantMXE, i64 0, i32 0, i64 2), ptr %15, align 8
  invoke void @_ZN6casadi6MXNode12set_sparsityERKNS_8SparsityE(ptr noundef nonnull align 8 dereferenceable(64) %15, ptr noundef nonnull align 8 dereferenceable(8) %0)
          to label %_ZN6casadi8ConstantINS_16CompiletimeConstILi0EEEEC2ERKNS_8SparsityES2_.exit unwind label %17

17:                                               ; preds = %.noexc
  %18 = landingpad { ptr, i32 }
          cleanup
  tail call void @_ZN6casadi6MXNodeD2Ev(ptr noundef nonnull align 8 dereferenceable(64) %15) #25
  br label %.body

_ZN6casadi8ConstantINS_16CompiletimeConstILi0EEEEC2ERKNS_8SparsityES2_.exit: ; preds = %.noexc
  store ptr getelementptr inbounds ({ [108 x ptr] }, ptr @_ZTVN6casadi8ConstantINS_16CompiletimeConstILi0EEEEE, i64 0, i32 0, i64 2), ptr %15, align 8
  br label %_ZN6casadi10ZeroByZero11getInstanceEv.exit

19:                                               ; preds = %16
  %20 = landingpad { ptr, i32 }
          cleanup
  br label %.body

.body:                                            ; preds = %17, %19
  %eh.lpad-body = phi { ptr, i32 } [ %20, %19 ], [ %18, %17 ]
  tail call void @_ZdlPv(ptr noundef nonnull %15) #28
  br label %common.resume

21:                                               ; preds = %14
  invoke void @_ZN6casadi6MXNodeC2Ev(ptr noundef nonnull align 8 dereferenceable(64) %15)
          to label %.noexc12 unwind label %24

.noexc12:                                         ; preds = %21
  store ptr getelementptr inbounds ({ [108 x ptr] }, ptr @_ZTVN6casadi10ConstantMXE, i64 0, i32 0, i64 2), ptr %15, align 8
  invoke void @_ZN6casadi6MXNode12set_sparsityERKNS_8SparsityE(ptr noundef nonnull align 8 dereferenceable(64) %15, ptr noundef nonnull align 8 dereferenceable(8) %0)
          to label %_ZN6casadi8ConstantINS_16CompiletimeConstILi1EEEEC2ERKNS_8SparsityES2_.exit unwind label %22

22:                                               ; preds = %.noexc12
  %23 = landingpad { ptr, i32 }
          cleanup
  tail call void @_ZN6casadi6MXNodeD2Ev(ptr noundef nonnull align 8 dereferenceable(64) %15) #25
  br label %.body13

_ZN6casadi8ConstantINS_16CompiletimeConstILi1EEEEC2ERKNS_8SparsityES2_.exit: ; preds = %.noexc12
  store ptr getelementptr inbounds ({ [108 x ptr] }, ptr @_ZTVN6casadi8ConstantINS_16CompiletimeConstILi1EEEEE, i64 0, i32 0, i64 2), ptr %15, align 8
  br label %_ZN6casadi10ZeroByZero11getInstanceEv.exit

24:                                               ; preds = %21
  %25 = landingpad { ptr, i32 }
          cleanup
  br label %.body13

.body13:                                          ; preds = %22, %24
  %eh.lpad-body14 = phi { ptr, i32 } [ %25, %24 ], [ %23, %22 ]
  tail call void @_ZdlPv(ptr noundef nonnull %15) #28
  br label %common.resume

26:                                               ; preds = %14
  invoke void @_ZN6casadi6MXNodeC2Ev(ptr noundef nonnull align 8 dereferenceable(64) %15)
          to label %.noexc15 unwind label %29

.noexc15:                                         ; preds = %26
  store ptr getelementptr inbounds ({ [108 x ptr] }, ptr @_ZTVN6casadi10ConstantMXE, i64 0, i32 0, i64 2), ptr %15, align 8
  invoke void @_ZN6casadi6MXNode12set_sparsityERKNS_8SparsityE(ptr noundef nonnull align 8 dereferenceable(64) %15, ptr noundef nonnull align 8 dereferenceable(8) %0)
          to label %_ZN6casadi8ConstantINS_16CompiletimeConstILin1EEEEC2ERKNS_8SparsityES2_.exit unwind label %27

27:                                               ; preds = %.noexc15
  %28 = landingpad { ptr, i32 }
          cleanup
  tail call void @_ZN6casadi6MXNodeD2Ev(ptr noundef nonnull align 8 dereferenceable(64) %15) #25
  br label %.body16

_ZN6casadi8ConstantINS_16CompiletimeConstILin1EEEEC2ERKNS_8SparsityES2_.exit: ; preds = %.noexc15
  store ptr getelementptr inbounds ({ [108 x ptr] }, ptr @_ZTVN6casadi8ConstantINS_16CompiletimeConstILin1EEEEE, i64 0, i32 0, i64 2), ptr %15, align 8
  br label %_ZN6casadi10ZeroByZero11getInstanceEv.exit

29:                                               ; preds = %26
  %30 = landingpad { ptr, i32 }
          cleanup
  br label %.body16

.body16:                                          ; preds = %27, %29
  %eh.lpad-body17 = phi { ptr, i32 } [ %30, %29 ], [ %28, %27 ]
  tail call void @_ZdlPv(ptr noundef nonnull %15) #28
  br label %common.resume

31:                                               ; preds = %14
  invoke void @_ZN6casadi6MXNodeC2Ev(ptr noundef nonnull align 8 dereferenceable(64) %15)
          to label %.noexc18 unwind label %35

.noexc18:                                         ; preds = %31
  store ptr getelementptr inbounds ({ [108 x ptr] }, ptr @_ZTVN6casadi10ConstantMXE, i64 0, i32 0, i64 2), ptr %15, align 8
  invoke void @_ZN6casadi6MXNode12set_sparsityERKNS_8SparsityE(ptr noundef nonnull align 8 dereferenceable(64) %15, ptr noundef nonnull align 8 dereferenceable(8) %0)
          to label %_ZN6casadi8ConstantINS_12RuntimeConstIxEEEC2ERKNS_8SparsityES2_.exit unwind label %32

32:                                               ; preds = %.noexc18
  %33 = landingpad { ptr, i32 }
          cleanup
  tail call void @_ZN6casadi6MXNodeD2Ev(ptr noundef nonnull align 8 dereferenceable(64) %15) #25
  br label %.body19

_ZN6casadi8ConstantINS_12RuntimeConstIxEEEC2ERKNS_8SparsityES2_.exit: ; preds = %.noexc18
  store ptr getelementptr inbounds ({ [108 x ptr] }, ptr @_ZTVN6casadi8ConstantINS_12RuntimeConstIxEEEE, i64 0, i32 0, i64 2), ptr %15, align 8
  %34 = getelementptr inbounds i8, ptr %15, i64 64
  store i64 %1, ptr %34, align 8
  br label %_ZN6casadi10ZeroByZero11getInstanceEv.exit

35:                                               ; preds = %31
  %36 = landingpad { ptr, i32 }
          cleanup
  br label %.body19

.body19:                                          ; preds = %32, %35
  %eh.lpad-body20 = phi { ptr, i32 } [ %36, %35 ], [ %33, %32 ]
  tail call void @_ZdlPv(ptr noundef nonnull %15) #28
  br label %common.resume

_ZN6casadi10ZeroByZero11getInstanceEv.exit:       ; preds = %10, %7, %4, %_ZN6casadi8ConstantINS_12RuntimeConstIxEEEC2ERKNS_8SparsityES2_.exit, %_ZN6casadi8ConstantINS_16CompiletimeConstILin1EEEEC2ERKNS_8SparsityES2_.exit, %_ZN6casadi8ConstantINS_16CompiletimeConstILi1EEEEC2ERKNS_8SparsityES2_.exit, %_ZN6casadi8ConstantINS_16CompiletimeConstILi0EEEEC2ERKNS_8SparsityES2_.exit
  %.010 = phi ptr [ %15, %_ZN6casadi8ConstantINS_16CompiletimeConstILi0EEEEC2ERKNS_8SparsityES2_.exit ], [ %15, %_ZN6casadi8ConstantINS_16CompiletimeConstILi1EEEEC2ERKNS_8SparsityES2_.exit ], [ %15, %_ZN6casadi8ConstantINS_16CompiletimeConstILin1EEEEC2ERKNS_8SparsityES2_.exit ], [ %15, %_ZN6casadi8ConstantINS_12RuntimeConstIxEEEC2ERKNS_8SparsityES2_.exit ], [ @_ZZN6casadi10ZeroByZero11getInstanceEvE8instance, %4 ], [ @_ZZN6casadi10ZeroByZero11getInstanceEvE8instance, %7 ], [ @_ZZN6casadi10ZeroByZero11getInstanceEvE8instance, %10 ]
  ret ptr %.010
}